; Function Attrs: mustprogress uwtable
define noundef i32 @_ZN3gmx18ColvarProxyGromacs9init_atomEi(ptr noundef nonnull align 8 dereferenceable(1728) %0, i32 noundef %1) unnamed_addr #1 align 2 {
  %3 = add nsw i32 %1, -1
  %4 = getelementptr inbounds i8, ptr %0, i64 264
  %5 = getelementptr inbounds i8, ptr %0, i64 272
  %6 = load ptr, ptr %5, align 8
  %7 = load ptr, ptr %4, align 8
  %.not = icmp eq ptr %6, %7
  br i1 %.not, label %._crit_edge, label %.lr.ph.preheader

.lr.ph.preheader:                                 ; preds = %2
  %8 = ptrtoint ptr %6 to i64
  %9 = ptrtoint ptr %7 to i64
  %10 = sub i64 %8, %9
  %11 = ashr exact i64 %10, 2
  %umax = tail call i64 @llvm.umax.i64(i64 %11, i64 1)
  br label %.lr.ph

.lr.ph:                                           ; preds = %.lr.ph.preheader, %22
  %.01317 = phi i64 [ %23, %22 ], [ 0, %.lr.ph.preheader ]
  %12 = getelementptr inbounds i32, ptr %7, i64 %.01317
  %13 = load i32, ptr %12, align 4
  %14 = icmp eq i32 %13, %3
  br i1 %14, label %15, label %22

15:                                               ; preds = %.lr.ph
  %16 = getelementptr inbounds i8, ptr %0, i64 288
  %17 = load ptr, ptr %16, align 8
  %18 = getelementptr inbounds i64, ptr %17, i64 %.01317
  %19 = load i64, ptr %18, align 8
  %20 = add i64 %19, 1
  store i64 %20, ptr %18, align 8
  %21 = trunc i64 %.01317 to i32
  br label %32

22:                                               ; preds = %.lr.ph
  %23 = add nuw i64 %.01317, 1
  %exitcond.not = icmp eq i64 %23, %umax
  br i1 %exitcond.not, label %._crit_edge, label %.lr.ph, !llvm.loop !11

._crit_edge:                                      ; preds = %22, %2
  %24 = load ptr, ptr %0, align 8
  %25 = getelementptr inbounds i8, ptr %24, i64 232
  %26 = load ptr, ptr %25, align 8
  %27 = tail call noundef i32 %26(ptr noundef nonnull align 8 dereferenceable(1728) %0, i32 noundef %1)
  %28 = icmp slt i32 %27, 0
  br i1 %28, label %32, label %29

29:                                               ; preds = %._crit_edge
  %30 = getelementptr inbounds i8, ptr %0, i64 256
  %31 = tail call noundef i32 @_ZN17colvarproxy_atoms13add_atom_slotEi(ptr noundef nonnull align 8 dereferenceable(199) %30, i32 noundef %27)
  tail call void @_ZN3gmx18ColvarProxyGromacs20updateAtomPropertiesEi(ptr noundef nonnull align 8 dereferenceable(1728) %0, i32 noundef %31)
  br label %32

32:                                               ; preds = %._crit_edge, %29, %15
  %.0 = phi i32 [ %21, %15 ], [ %31, %29 ], [ 4, %._crit_edge ]
  ret i32 %.0
}